target datalayout = "e-m:e-p270:32:32-p271:32:32-p272:64:64-i64:64-i128:128-f80:128-n8:16:32:64-S128"
target triple = "x86_64-pc-linux-gnu"

%"struct.std::array" = type { [32 x i8] }

@__const._ZN5faiss20pq4_pack_codes_rangeEPKhmmmmmPh.perm0 = private unnamed_addr constant [16 x i8] c"\00\08\01\09\02\0A\03\0B\04\0C\05\0D\06\0E\07\0F", align 16

; Function Attrs: mustprogress nounwind uwtable
define linkonce_odr noundef nonnull align 1 dereferenceable(1) ptr @_ZNSt14__array_traitsIhLm32EE6_S_refERA32_Khm(ptr noundef nonnull align 1 dereferenceable(32) %0, i64 noundef %1) #0 comdat align 2 {
  %3 = alloca ptr, align 8
  %4 = alloca i64, align 8
  store ptr %0, ptr %3, align 8, !tbaa !9
  store i64 %1, ptr %4, align 8, !tbaa !11
  %5 = load ptr, ptr %3, align 8, !tbaa !9
  %6 = load i64, ptr %4, align 8, !tbaa !11
  %7 = getelementptr inbounds nuw [32 x i8], ptr %5, i64 0, i64 %6
  ret ptr %7
}

; Function Attrs: mustprogress nounwind willreturn memory(none) uwtable
define linkonce_odr noundef i64 @_ZNKSt5arrayIhLm32EE4sizeEv(ptr noundef nonnull align 1 dereferenceable(32) %0) #13 comdat align 2 {
  %2 = alloca ptr, align 8
  store ptr %0, ptr %2, align 8, !tbaa !41
  ret i64 32
}

; Function Attrs: mustprogress nounwind uwtable
define linkonce_odr noundef nonnull align 1 dereferenceable(1) ptr @_ZNSt5arrayIhLm32EEixEm(ptr noundef nonnull align 1 dereferenceable(32) %0, i64 noundef %1) #0 comdat align 2 {
  %3 = alloca ptr, align 8
  %4 = alloca i64, align 8
  store ptr %0, ptr %3, align 8, !tbaa !41
  store i64 %1, ptr %4, align 8, !tbaa !11
  %5 = load ptr, ptr %3, align 8
  %6 = getelementptr inbounds nuw %"struct.std::array", ptr %5, i32 0, i32 0
  %7 = load i64, ptr %4, align 8, !tbaa !11
  %8 = call noundef nonnull align 1 dereferenceable(1) ptr @_ZNSt14__array_traitsIhLm32EE6_S_refERA32_Khm(ptr noundef nonnull align 1 dereferenceable(32) %6, i64 noundef %7) #6
  ret ptr %8
}

; Function Attrs: mustprogress nounwind uwtable
define internal void @_ZN5faiss12_GLOBAL__N_117get_matrix_columnIKhSt5arrayIhLm32EEEEvPT_mmllRT0_(ptr noundef %0, i64 noundef %1, i64 noundef %2, i64 noundef %3, i64 noundef %4, ptr noundef nonnull align 1 dereferenceable(32) %5) #0 {
  %7 = alloca ptr, align 8
  %8 = alloca i64, align 8
  %9 = alloca i64, align 8
  %10 = alloca i64, align 8
  %11 = alloca i64, align 8
  %12 = alloca ptr, align 8
  %13 = alloca i64, align 8
  store ptr %0, ptr %7, align 8, !tbaa !9
  store i64 %1, ptr %8, align 8, !tbaa !11
  store i64 %2, ptr %9, align 8, !tbaa !11
  store i64 %3, ptr %10, align 8, !tbaa !11
  store i64 %4, ptr %11, align 8, !tbaa !11
  store ptr %5, ptr %12, align 8, !tbaa !41
  call void @llvm.lifetime.start.p0(i64 8, ptr %13) #6
  store i64 0, ptr %13, align 8, !tbaa !11
  br label %14

14:                                               ; preds = %50, %6
  %15 = load i64, ptr %13, align 8, !tbaa !11
  %16 = load ptr, ptr %12, align 8, !tbaa !41
  %17 = call noundef i64 @_ZNKSt5arrayIhLm32EE4sizeEv(ptr noundef nonnull align 1 dereferenceable(32) %16) #17
  %18 = icmp ult i64 %15, %17
  br i1 %18, label %20, label %19

19:                                               ; preds = %14
  call void @llvm.lifetime.end.p0(i64 8, ptr %13) #6
  br label %53

20:                                               ; preds = %14
  %21 = load i64, ptr %13, align 8, !tbaa !11
  %22 = load i64, ptr %10, align 8, !tbaa !11
  %23 = add nsw i64 %21, %22
  %24 = icmp sge i64 %23, 0
  br i1 %24, label %25, label %45

25:                                               ; preds = %20
  %26 = load i64, ptr %13, align 8, !tbaa !11
  %27 = load i64, ptr %10, align 8, !tbaa !11
  %28 = add nsw i64 %26, %27
  %29 = load i64, ptr %8, align 8, !tbaa !11
  %30 = icmp ult i64 %28, %29
  br i1 %30, label %31, label %45

31:                                               ; preds = %25
  %32 = load ptr, ptr %7, align 8, !tbaa !9
  %33 = load i64, ptr %13, align 8, !tbaa !11
  %34 = load i64, ptr %10, align 8, !tbaa !11
  %35 = add nsw i64 %33, %34
  %36 = load i64, ptr %9, align 8, !tbaa !11
  %37 = mul i64 %35, %36
  %38 = load i64, ptr %11, align 8, !tbaa !11
  %39 = add i64 %37, %38
  %40 = getelementptr inbounds nuw i8, ptr %32, i64 %39
  %41 = load i8, ptr %40, align 1, !tbaa !17
  %42 = load ptr, ptr %12, align 8, !tbaa !41
  %43 = load i64, ptr %13, align 8, !tbaa !11
  %44 = call noundef nonnull align 1 dereferenceable(1) ptr @_ZNSt5arrayIhLm32EEixEm(ptr noundef nonnull align 1 dereferenceable(32) %42, i64 noundef %43) #6
  store i8 %41, ptr %44, align 1, !tbaa !17
  br label %49

45:                                               ; preds = %25, %20
  %46 = load ptr, ptr %12, align 8, !tbaa !41
  %47 = load i64, ptr %13, align 8, !tbaa !11
  %48 = call noundef nonnull align 1 dereferenceable(1) ptr @_ZNSt5arrayIhLm32EEixEm(ptr noundef nonnull align 1 dereferenceable(32) %46, i64 noundef %47) #6
  store i8 0, ptr %48, align 1, !tbaa !17
  br label %49

49:                                               ; preds = %45, %31
  br label %50

50:                                               ; preds = %49
  %51 = load i64, ptr %13, align 8, !tbaa !11
  %52 = add nsw i64 %51, 1
  store i64 %52, ptr %13, align 8, !tbaa !11
  br label %14, !llvm.loop !43

53:                                               ; preds = %19
  ret void
}

; Function Attrs: mustprogress nounwind uwtable
define void @_ZN5faiss20pq4_pack_codes_rangeEPKhmmmmmPh(ptr noundef %0, i64 noundef %1, i64 noundef %2, i64 noundef %3, i64 noundef %4, i64 noundef %5, ptr noundef %6) #0 {
  %8 = alloca ptr, align 8
  %9 = alloca i64, align 8
  %10 = alloca i64, align 8
  %11 = alloca i64, align 8
  %12 = alloca i64, align 8
  %13 = alloca i64, align 8
  %14 = alloca ptr, align 8
  %15 = alloca [16 x i8], align 16
  %16 = alloca i64, align 8
  %17 = alloca i64, align 8
  %18 = alloca i64, align 8
  %19 = alloca i32, align 4
  %20 = alloca ptr, align 8
  %21 = alloca i64, align 8
  %22 = alloca i32, align 4
  %23 = alloca i64, align 8
  %24 = alloca %"struct.std::array", align 1
  %25 = alloca %"struct.std::array", align 1
  %26 = alloca %"struct.std::array", align 1
  %27 = alloca i32, align 4
  %28 = alloca i32, align 4
  %29 = alloca i8, align 1
  %30 = alloca i8, align 1
  store ptr %0, ptr %8, align 8, !tbaa !9
  store i64 %1, ptr %9, align 8, !tbaa !11
  store i64 %2, ptr %10, align 8, !tbaa !11
  store i64 %3, ptr %11, align 8, !tbaa !11
  store i64 %4, ptr %12, align 8, !tbaa !11
  store i64 %5, ptr %13, align 8, !tbaa !11
  store ptr %6, ptr %14, align 8, !tbaa !9
  call void @llvm.lifetime.start.p0(i64 16, ptr %15) #6
  call void @llvm.memcpy.p0.p0.i64(ptr align 16 %15, ptr align 16 @__const._ZN5faiss20pq4_pack_codes_rangeEPKhmmmmmPh.perm0, i64 16, i1 false)
  call void @llvm.lifetime.start.p0(i64 8, ptr %16) #6
  %31 = load i64, ptr %10, align 8, !tbaa !11
  %32 = load i64, ptr %12, align 8, !tbaa !11
  %33 = udiv i64 %31, %32
  store i64 %33, ptr %16, align 8, !tbaa !11
  call void @llvm.lifetime.start.p0(i64 8, ptr %17) #6
  %34 = load i64, ptr %11, align 8, !tbaa !11
  %35 = sub i64 %34, 1
  %36 = load i64, ptr %12, align 8, !tbaa !11
  %37 = udiv i64 %35, %36
  %38 = add i64 %37, 1
  store i64 %38, ptr %17, align 8, !tbaa !11
  call void @llvm.lifetime.start.p0(i64 8, ptr %18) #6
  %39 = load i64, ptr %16, align 8, !tbaa !11
  store i64 %39, ptr %18, align 8, !tbaa !11
  br label %40

40:                                               ; preds = %196, %7
  %41 = load i64, ptr %18, align 8, !tbaa !11
  %42 = load i64, ptr %17, align 8, !tbaa !11
  %43 = icmp ult i64 %41, %42
  br i1 %43, label %45, label %44

44:                                               ; preds = %40
  store i32 2, ptr %19, align 4
  call void @llvm.lifetime.end.p0(i64 8, ptr %18) #6
  br label %199

45:                                               ; preds = %40
  call void @llvm.lifetime.start.p0(i64 8, ptr %20) #6
  %46 = load ptr, ptr %14, align 8, !tbaa !9
  %47 = load i64, ptr %18, align 8, !tbaa !11
  %48 = load i64, ptr %12, align 8, !tbaa !11
  %49 = mul i64 %47, %48
  %50 = load i64, ptr %13, align 8, !tbaa !11
  %51 = mul i64 %49, %50
  %52 = udiv i64 %51, 2
  %53 = getelementptr inbounds nuw i8, ptr %46, i64 %52
  store ptr %53, ptr %20, align 8, !tbaa !9
  call void @llvm.lifetime.start.p0(i64 8, ptr %21) #6
  %54 = load i64, ptr %18, align 8, !tbaa !11
  %55 = load i64, ptr %12, align 8, !tbaa !11
  %56 = mul i64 %54, %55
  %57 = load i64, ptr %10, align 8, !tbaa !11
  %58 = sub i64 %56, %57
  store i64 %58, ptr %21, align 8, !tbaa !11
  call void @llvm.lifetime.start.p0(i64 4, ptr %22) #6
  store i32 0, ptr %22, align 4, !tbaa !25
  br label %59

59:                                               ; preds = %192, %45
  %60 = load i32, ptr %22, align 4, !tbaa !25
  %61 = sext i32 %60 to i64
  %62 = load i64, ptr %13, align 8, !tbaa !11
  %63 = icmp ult i64 %61, %62
  br i1 %63, label %65, label %64

64:                                               ; preds = %59
  store i32 5, ptr %19, align 4
  call void @llvm.lifetime.end.p0(i64 4, ptr %22) #6
  br label %195

65:                                               ; preds = %59
  call void @llvm.lifetime.start.p0(i64 8, ptr %23) #6
  store i64 0, ptr %23, align 8, !tbaa !11
  br label %66

66:                                               ; preds = %188, %65
  %67 = load i64, ptr %23, align 8, !tbaa !11
  %68 = load i64, ptr %12, align 8, !tbaa !11
  %69 = icmp ult i64 %67, %68
  br i1 %69, label %71, label %70

70:                                               ; preds = %66
  store i32 8, ptr %19, align 4
  call void @llvm.lifetime.end.p0(i64 8, ptr %23) #6
  br label %191

71:                                               ; preds = %66
  call void @llvm.lifetime.start.p0(i64 32, ptr %24) #6
  call void @llvm.lifetime.start.p0(i64 32, ptr %25) #6
  call void @llvm.lifetime.start.p0(i64 32, ptr %26) #6
  %72 = load ptr, ptr %8, align 8, !tbaa !9
  %73 = load i64, ptr %11, align 8, !tbaa !11
  %74 = load i64, ptr %10, align 8, !tbaa !11
  %75 = sub i64 %73, %74
  %76 = load i64, ptr %9, align 8, !tbaa !11
  %77 = add i64 %76, 1
  %78 = udiv i64 %77, 2
  %79 = load i64, ptr %21, align 8, !tbaa !11
  %80 = load i64, ptr %23, align 8, !tbaa !11
  %81 = add i64 %79, %80
  %82 = load i32, ptr %22, align 4, !tbaa !25
  %83 = sdiv i32 %82, 2
  %84 = sext i32 %83 to i64
  call void @_ZN5faiss12_GLOBAL__N_117get_matrix_columnIKhSt5arrayIhLm32EEEEvPT_mmllRT0_(ptr noundef %72, i64 noundef %75, i64 noundef %78, i64 noundef %81, i64 noundef %84, ptr noundef nonnull align 1 dereferenceable(32) %24)
  call void @llvm.lifetime.start.p0(i64 4, ptr %27) #6
  store i32 0, ptr %27, align 4, !tbaa !25
  br label %85

85:                                               ; preds = %110, %71
  %86 = load i32, ptr %27, align 4, !tbaa !25
  %87 = icmp slt i32 %86, 32
  br i1 %87, label %89, label %88

88:                                               ; preds = %85
  store i32 11, ptr %19, align 4
  call void @llvm.lifetime.end.p0(i64 4, ptr %27) #6
  br label %113

89:                                               ; preds = %85
  %90 = load i32, ptr %27, align 4, !tbaa !25
  %91 = sext i32 %90 to i64
  %92 = call noundef nonnull align 1 dereferenceable(1) ptr @_ZNSt5arrayIhLm32EEixEm(ptr noundef nonnull align 1 dereferenceable(32) %24, i64 noundef %91) #6
  %93 = load i8, ptr %92, align 1, !tbaa !17
  %94 = zext i8 %93 to i32
  %95 = and i32 %94, 15
  %96 = trunc i32 %95 to i8
  %97 = load i32, ptr %27, align 4, !tbaa !25
  %98 = sext i32 %97 to i64
  %99 = call noundef nonnull align 1 dereferenceable(1) ptr @_ZNSt5arrayIhLm32EEixEm(ptr noundef nonnull align 1 dereferenceable(32) %25, i64 noundef %98) #6
  store i8 %96, ptr %99, align 1, !tbaa !17
  %100 = load i32, ptr %27, align 4, !tbaa !25
  %101 = sext i32 %100 to i64
  %102 = call noundef nonnull align 1 dereferenceable(1) ptr @_ZNSt5arrayIhLm32EEixEm(ptr noundef nonnull align 1 dereferenceable(32) %24, i64 noundef %101) #6
  %103 = load i8, ptr %102, align 1, !tbaa !17
  %104 = zext i8 %103 to i32
  %105 = ashr i32 %104, 4
  %106 = trunc i32 %105 to i8
  %107 = load i32, ptr %27, align 4, !tbaa !25
  %108 = sext i32 %107 to i64
  %109 = call noundef nonnull align 1 dereferenceable(1) ptr @_ZNSt5arrayIhLm32EEixEm(ptr noundef nonnull align 1 dereferenceable(32) %26, i64 noundef %108) #6
  store i8 %106, ptr %109, align 1, !tbaa !17
  br label %110

110:                                              ; preds = %89
  %111 = load i32, ptr %27, align 4, !tbaa !25
  %112 = add nsw i32 %111, 1
  store i32 %112, ptr %27, align 4, !tbaa !25
  br label %85, !llvm.loop !52

113:                                              ; preds = %88
  call void @llvm.lifetime.start.p0(i64 4, ptr %28) #6
  store i32 0, ptr %28, align 4, !tbaa !25
  br label %114

114:                                              ; preds = %182, %113
  %115 = load i32, ptr %28, align 4, !tbaa !25
  %116 = icmp slt i32 %115, 16
  br i1 %116, label %118, label %117

117:                                              ; preds = %114
  store i32 14, ptr %19, align 4
  call void @llvm.lifetime.end.p0(i64 4, ptr %28) #6
  br label %185

118:                                              ; preds = %114
  call void @llvm.lifetime.start.p0(i64 1, ptr %29) #6
  call void @llvm.lifetime.start.p0(i64 1, ptr %30) #6
  %119 = load i32, ptr %28, align 4, !tbaa !25
  %120 = sext i32 %119 to i64
  %121 = getelementptr inbounds [16 x i8], ptr %15, i64 0, i64 %120
  %122 = load i8, ptr %121, align 1, !tbaa !17
  %123 = zext i8 %122 to i64
  %124 = call noundef nonnull align 1 dereferenceable(1) ptr @_ZNSt5arrayIhLm32EEixEm(ptr noundef nonnull align 1 dereferenceable(32) %25, i64 noundef %123) #6
  %125 = load i8, ptr %124, align 1, !tbaa !17
  %126 = zext i8 %125 to i32
  %127 = load i32, ptr %28, align 4, !tbaa !25
  %128 = sext i32 %127 to i64
  %129 = getelementptr inbounds [16 x i8], ptr %15, i64 0, i64 %128
  %130 = load i8, ptr %129, align 1, !tbaa !17
  %131 = zext i8 %130 to i32
  %132 = add nsw i32 %131, 16
  %133 = sext i32 %132 to i64
  %134 = call noundef nonnull align 1 dereferenceable(1) ptr @_ZNSt5arrayIhLm32EEixEm(ptr noundef nonnull align 1 dereferenceable(32) %25, i64 noundef %133) #6
  %135 = load i8, ptr %134, align 1, !tbaa !17
  %136 = zext i8 %135 to i32
  %137 = shl i32 %136, 4
  %138 = or i32 %126, %137
  %139 = trunc i32 %138 to i8
  store i8 %139, ptr %29, align 1, !tbaa !17
  %140 = load i32, ptr %28, align 4, !tbaa !25
  %141 = sext i32 %140 to i64
  %142 = getelementptr inbounds [16 x i8], ptr %15, i64 0, i64 %141
  %143 = load i8, ptr %142, align 1, !tbaa !17
  %144 = zext i8 %143 to i64
  %145 = call noundef nonnull align 1 dereferenceable(1) ptr @_ZNSt5arrayIhLm32EEixEm(ptr noundef nonnull align 1 dereferenceable(32) %26, i64 noundef %144) #6
  %146 = load i8, ptr %145, align 1, !tbaa !17
  %147 = zext i8 %146 to i32
  %148 = load i32, ptr %28, align 4, !tbaa !25
  %149 = sext i32 %148 to i64
  %150 = getelementptr inbounds [16 x i8], ptr %15, i64 0, i64 %149
  %151 = load i8, ptr %150, align 1, !tbaa !17
  %152 = zext i8 %151 to i32
  %153 = add nsw i32 %152, 16
  %154 = sext i32 %153 to i64
  %155 = call noundef nonnull align 1 dereferenceable(1) ptr @_ZNSt5arrayIhLm32EEixEm(ptr noundef nonnull align 1 dereferenceable(32) %26, i64 noundef %154) #6
  %156 = load i8, ptr %155, align 1, !tbaa !17
  %157 = zext i8 %156 to i32
  %158 = shl i32 %157, 4
  %159 = or i32 %147, %158
  %160 = trunc i32 %159 to i8
  store i8 %160, ptr %30, align 1, !tbaa !17
  %161 = load i8, ptr %29, align 1, !tbaa !17
  %162 = zext i8 %161 to i32
  %163 = load ptr, ptr %20, align 8, !tbaa !9
  %164 = load i32, ptr %28, align 4, !tbaa !25
  %165 = sext i32 %164 to i64
  %166 = getelementptr inbounds i8, ptr %163, i64 %165
  %167 = load i8, ptr %166, align 1, !tbaa !17
  %168 = zext i8 %167 to i32
  %169 = or i32 %168, %162
  %170 = trunc i32 %169 to i8
  store i8 %170, ptr %166, align 1, !tbaa !17
  %171 = load i8, ptr %30, align 1, !tbaa !17
  %172 = zext i8 %171 to i32
  %173 = load ptr, ptr %20, align 8, !tbaa !9
  %174 = load i32, ptr %28, align 4, !tbaa !25
  %175 = add nsw i32 %174, 16
  %176 = sext i32 %175 to i64
  %177 = getelementptr inbounds i8, ptr %173, i64 %176
  %178 = load i8, ptr %177, align 1, !tbaa !17
  %179 = zext i8 %178 to i32
  %180 = or i32 %179, %172
  %181 = trunc i32 %180 to i8
  store i8 %181, ptr %177, align 1, !tbaa !17
  call void @llvm.lifetime.end.p0(i64 1, ptr %30) #6
  call void @llvm.lifetime.end.p0(i64 1, ptr %29) #6
  br label %182

182:                                              ; preds = %118
  %183 = load i32, ptr %28, align 4, !tbaa !25
  %184 = add nsw i32 %183, 1
  store i32 %184, ptr %28, align 4, !tbaa !25
  br label %114, !llvm.loop !53

185:                                              ; preds = %117
  %186 = load ptr, ptr %20, align 8, !tbaa !9
  %187 = getelementptr inbounds i8, ptr %186, i64 32
  store ptr %187, ptr %20, align 8, !tbaa !9
  call void @llvm.lifetime.end.p0(i64 32, ptr %26) #6
  call void @llvm.lifetime.end.p0(i64 32, ptr %25) #6
  call void @llvm.lifetime.end.p0(i64 32, ptr %24) #6
  br label %188

188:                                              ; preds = %185
  %189 = load i64, ptr %23, align 8, !tbaa !11
  %190 = add i64 %189, 32
  store i64 %190, ptr %23, align 8, !tbaa !11
  br label %66, !llvm.loop !54

191:                                              ; preds = %70
  br label %192

192:                                              ; preds = %191
  %193 = load i32, ptr %22, align 4, !tbaa !25
  %194 = add nsw i32 %193, 2
  store i32 %194, ptr %22, align 4, !tbaa !25
  br label %59, !llvm.loop !55

195:                                              ; preds = %64
  call void @llvm.lifetime.end.p0(i64 8, ptr %21) #6
  call void @llvm.lifetime.end.p0(i64 8, ptr %20) #6
  br label %196

196:                                              ; preds = %195
  %197 = load i64, ptr %18, align 8, !tbaa !11
  %198 = add i64 %197, 1
  store i64 %198, ptr %18, align 8, !tbaa !11
  br label %40, !llvm.loop !56

199:                                              ; preds = %44
  call void @llvm.lifetime.end.p0(i64 8, ptr %17) #6
  call void @llvm.lifetime.end.p0(i64 8, ptr %16) #6
  call void @llvm.lifetime.end.p0(i64 16, ptr %15) #6
  ret void
}